; Function Attrs: mustprogress uwtable
define hidden void @_ZN4cvc58internal6theory2bv25BitVectorConstantTypeRule11computeTypeEPNS0_11NodeManagerENS0_12NodeTemplateILb0EEEbPSo(ptr dead_on_unwind noalias writable sret(%"class.cvc5::internal::TypeNode") align 8 %0, ptr noundef %1, ptr noundef readonly captures(none) %2, i1 noundef zeroext %3, ptr noundef %4) local_unnamed_addr #3 align 2 {
  br i1 %3, label %6, label %30

6:                                                ; preds = %5
  %7 = load ptr, ptr %2, align 8, !tbaa !19
  %8 = tail call noundef nonnull align 8 dereferenceable(24) ptr @_ZNK4cvc58internal4expr9NodeValue8getConstINS0_9BitVectorEEERKT_v(ptr noundef nonnull align 8 dereferenceable(24) %7)
  %9 = tail call noundef i32 @_ZNK4cvc58internal9BitVector7getSizeEv(ptr noundef nonnull align 8 dereferenceable(24) %8)
  %10 = icmp eq i32 %9, 0
  br i1 %10, label %11, label %30

11:                                               ; preds = %6
  %.not = icmp eq ptr %4, null
  br i1 %.not, label %14, label %12

12:                                               ; preds = %11
  %13 = tail call noundef nonnull align 8 dereferenceable(8) ptr @_ZSt16__ostream_insertIcSt11char_traitsIcEERSt13basic_ostreamIT_T0_ES6_PKS3_l(ptr noundef nonnull align 8 dereferenceable(8) %4, ptr noundef nonnull @.str.1, i64 noundef 18)
  br label %14

14:                                               ; preds = %12, %11
  tail call void @llvm.experimental.noalias.scope.decl(metadata !21)
  %15 = load ptr, ptr @_ZN4cvc58internal8TypeNode6s_nullE, align 8, !tbaa !3, !noalias !21
  store ptr %15, ptr %0, align 8, !tbaa !3, !alias.scope !21
  %16 = load i64, ptr %15, align 8, !noalias !21
  %17 = lshr i64 %16, 40
  %18 = trunc nuw nsw i64 %17 to i32
  %19 = and i32 %18, 1048575
  %20 = icmp samesign ult i32 %19, 1048574
  br i1 %20, label %21, label %26, !prof !11

21:                                               ; preds = %14
  %22 = add i64 %16, 1099511627776
  %23 = and i64 %22, 1152920405095219200
  %24 = and i64 %16, -1152920405095219201
  %25 = or disjoint i64 %23, %24
  store i64 %25, ptr %15, align 8, !noalias !21
  br label %_ZN4cvc58internal8TypeNode4nullEv.exit

26:                                               ; preds = %14
  %27 = icmp eq i32 %19, 1048574
  br i1 %27, label %28, label %_ZN4cvc58internal8TypeNode4nullEv.exit, !prof !12

28:                                               ; preds = %26
  %29 = or i64 %16, 1152920405095219200
  store i64 %29, ptr %15, align 8, !noalias !21
  tail call void @_ZN4cvc58internal4expr9NodeValue20markRefCountMaxedOutEv(ptr noundef nonnull align 8 dereferenceable(24) %15), !noalias !21
  br label %_ZN4cvc58internal8TypeNode4nullEv.exit

30:                                               ; preds = %6, %5
  %31 = load ptr, ptr %2, align 8, !tbaa !19
  %32 = tail call noundef nonnull align 8 dereferenceable(24) ptr @_ZNK4cvc58internal4expr9NodeValue8getConstINS0_9BitVectorEEERKT_v(ptr noundef nonnull align 8 dereferenceable(24) %31)
  %33 = tail call noundef i32 @_ZNK4cvc58internal9BitVector7getSizeEv(ptr noundef nonnull align 8 dereferenceable(24) %32)
  tail call void @_ZN4cvc58internal11NodeManager15mkBitVectorTypeEj(ptr dead_on_unwind writable sret(%"class.cvc5::internal::TypeNode") align 8 %0, ptr noundef nonnull align 8 dereferenceable(3560) %1, i32 noundef %33)
  br label %_ZN4cvc58internal8TypeNode4nullEv.exit

_ZN4cvc58internal8TypeNode4nullEv.exit:           ; preds = %28, %26, %21, %30
  ret void
}